target datalayout = "e-m:e-p270:32:32-p271:32:32-p272:64:64-i64:64-i128:128-f80:128-n8:16:32:64-S128"
target triple = "x86_64-pc-linux-gnu"

%class.SerializeClosure = type { ptr }
%class.ReadClosure = type { %class.SerializeClosure, ptr }

@SharedBaseAddress = external global i64, align 8

; Function Attrs: mustprogress nounwind uwtable
define linkonce_odr hidden noundef i64 @_ZN11ReadClosure7nextPtrEv(ptr noundef nonnull align 8 dereferenceable(16) %0) #1 comdat align 2 {
  %2 = alloca ptr, align 8
  store ptr %0, ptr %2, align 8
  %3 = load ptr, ptr %2, align 8
  %4 = getelementptr inbounds %class.ReadClosure, ptr %3, i32 0, i32 1
  %5 = load ptr, ptr %4, align 8
  %6 = load ptr, ptr %5, align 8
  %7 = getelementptr inbounds i64, ptr %6, i32 1
  store ptr %7, ptr %5, align 8
  %8 = load i64, ptr %6, align 8
  ret i64 %8
}

; Function Attrs: mustprogress nounwind uwtable
define hidden void @_ZN11ReadClosure6do_ptrEPPv(ptr noundef nonnull align 8 dereferenceable(16) %0, ptr noundef %1) unnamed_addr #1 align 2 {
  %3 = alloca ptr, align 8
  %4 = alloca ptr, align 8
  %5 = alloca i64, align 8
  store ptr %0, ptr %3, align 8
  store ptr %1, ptr %4, align 8
  %6 = load ptr, ptr %3, align 8
  %7 = call noundef i64 @_ZN11ReadClosure7nextPtrEv(ptr noundef nonnull align 8 dereferenceable(16) %6)
  store i64 %7, ptr %5, align 8
  %8 = load i64, ptr %5, align 8
  %9 = inttoptr i64 %8 to ptr
  %10 = icmp ne ptr %9, null
  br i1 %10, label %11, label %16

11:                                               ; preds = %2
  %12 = load i64, ptr @SharedBaseAddress, align 8
  %13 = load i64, ptr %5, align 8
  %14 = add i64 %12, %13
  %15 = inttoptr i64 %14 to ptr
  br label %19

16:                                               ; preds = %2
  %17 = load i64, ptr %5, align 8
  %18 = inttoptr i64 %17 to ptr
  br label %19

19:                                               ; preds = %16, %11
  %20 = phi ptr [ %15, %11 ], [ %18, %16 ]
  %21 = load ptr, ptr %4, align 8
  store ptr %20, ptr %21, align 8
  ret void
}