; Function Attrs: mustprogress nofree norecurse nosync nounwind willreturn memory(readwrite, inaccessiblemem: none) uwtable
define hidden void @_ZN11ReadClosure6do_ptrEPPv(ptr nocapture noundef nonnull readonly align 8 dereferenceable(16) %0, ptr nocapture noundef writeonly %1) unnamed_addr #2 align 2 {
  %3 = getelementptr inbounds i8, ptr %0, i64 8
  %4 = load ptr, ptr %3, align 8
  %5 = load ptr, ptr %4, align 8
  %6 = getelementptr inbounds i8, ptr %5, i64 8
  store ptr %6, ptr %4, align 8
  %7 = load i64, ptr %5, align 8
  %.not = icmp eq i64 %7, 0
  %8 = load i64, ptr @SharedBaseAddress, align 8
  %9 = add i64 %8, %7
  %10 = inttoptr i64 %9 to ptr
  %11 = select i1 %.not, ptr null, ptr %10
  store ptr %11, ptr %1, align 8
  ret void
}